target datalayout = "e-m:e-p270:32:32-p271:32:32-p272:64:64-i64:64-i128:128-f80:128-n8:16:32:64-S128"
target triple = "x86_64-pc-linux-gnu"

%struct._generic_N_Vector = type { ptr, ptr, ptr }
%struct._N_VectorContent_Serial = type { i64, i32, ptr }

; Function Attrs: nounwind uwtable
define internal i32 @f(double noundef %0, ptr noundef %1, ptr noundef %2, ptr noundef %3) #0 {
  %5 = alloca double, align 8
  %6 = alloca ptr, align 8
  %7 = alloca ptr, align 8
  %8 = alloca ptr, align 8
  store double %0, ptr %5, align 8, !tbaa !4
  store ptr %1, ptr %6, align 8, !tbaa !10
  store ptr %2, ptr %7, align 8, !tbaa !10
  store ptr %3, ptr %8, align 8, !tbaa !13
  %9 = load double, ptr %5, align 8, !tbaa !4
  %10 = fadd double %9, 1.000000e+00
  %11 = load ptr, ptr %6, align 8, !tbaa !10
  %12 = getelementptr inbounds nuw %struct._generic_N_Vector, ptr %11, i32 0, i32 0
  %13 = load ptr, ptr %12, align 8, !tbaa !18
  %14 = getelementptr inbounds nuw %struct._N_VectorContent_Serial, ptr %13, i32 0, i32 2
  %15 = load ptr, ptr %14, align 8, !tbaa !21
  %16 = getelementptr inbounds double, ptr %15, i64 0
  %17 = load double, ptr %16, align 8, !tbaa !4
  %18 = fneg double %17
  %19 = call double @exp(double noundef %18) #4, !tbaa !14
  %20 = fmul double %10, %19
  %21 = load ptr, ptr %7, align 8, !tbaa !10
  %22 = getelementptr inbounds nuw %struct._generic_N_Vector, ptr %21, i32 0, i32 0
  %23 = load ptr, ptr %22, align 8, !tbaa !18
  %24 = getelementptr inbounds nuw %struct._N_VectorContent_Serial, ptr %23, i32 0, i32 2
  %25 = load ptr, ptr %24, align 8, !tbaa !21
  %26 = getelementptr inbounds double, ptr %25, i64 0
  store double %20, ptr %26, align 8, !tbaa !4
  ret i32 0
}