; Function Attrs: mustprogress nofree nounwind willreturn memory(readwrite, inaccessiblemem: write) uwtable
define internal noundef i32 @f(double noundef %0, ptr noundef readonly captures(none) %1, ptr noundef readonly captures(none) %2, ptr readnone captures(none) %3) #4 {
  %5 = fadd double %0, 1.000000e+00
  %6 = load ptr, ptr %1, align 8, !tbaa !11
  %7 = getelementptr inbounds nuw i8, ptr %6, i64 16
  %8 = load ptr, ptr %7, align 8, !tbaa !14
  %9 = load double, ptr %8, align 8, !tbaa !19
  %10 = fneg double %9
  %11 = tail call double @exp(double noundef %10) #7, !tbaa !22
  %12 = fmul double %5, %11
  %13 = load ptr, ptr %2, align 8, !tbaa !11
  %14 = getelementptr inbounds nuw i8, ptr %13, i64 16
  %15 = load ptr, ptr %14, align 8, !tbaa !14
  store double %12, ptr %15, align 8, !tbaa !19
  ret i32 0
}